target datalayout = "e-m:e-p270:32:32-p271:32:32-p272:64:64-i64:64-i128:128-f80:128-n8:16:32:64-S128"
target triple = "x86_64-pc-linux-gnu"

%struct.jpeg_decompress_struct = type { ptr, ptr, ptr, ptr, i32, i32, ptr, i32, i32, i32, i32, i32, i32, i32, double, i32, i32, i32, i32, i32, i32, i32, i32, i32, i32, i32, i32, i32, i32, i32, i32, i32, i32, ptr, i32, i32, i32, i32, i32, ptr, [4 x ptr], [4 x ptr], [4 x ptr], i32, ptr, i32, i32, [16 x i8], [16 x i8], [16 x i8], i32, i32, i8, i8, i8, i16, i16, i32, i8, i32, ptr, i32, i32, i32, i32, ptr, i32, [4 x ptr], i32, i32, i32, [10 x i32], i32, i32, i32, i32, i32, ptr, ptr, ptr, ptr, ptr, ptr, ptr, ptr, ptr, ptr, ptr }
%struct.jpeg_memory_mgr = type { ptr, ptr, ptr, ptr, ptr, ptr, ptr, ptr, ptr, ptr, ptr, i64, i64 }
%struct.my_cquantizer = type { %struct.jpeg_color_quantizer, ptr, i32, ptr, i32, [4 x i32], i32, [4 x ptr], [4 x ptr], i32 }
%struct.jpeg_color_quantizer = type { ptr, ptr, ptr, ptr, ptr }

; Function Attrs: nounwind uwtable
define internal i32 @largest_input_value(ptr noundef %0, i32 noundef %1, i32 noundef %2, i32 noundef %3) #0 {
  %5 = alloca ptr, align 8
  %6 = alloca i32, align 4
  %7 = alloca i32, align 4
  %8 = alloca i32, align 4
  store ptr %0, ptr %5, align 8, !tbaa !3
  store i32 %1, ptr %6, align 4, !tbaa !57
  store i32 %2, ptr %7, align 4, !tbaa !57
  store i32 %3, ptr %8, align 4, !tbaa !57
  %9 = load i32, ptr %7, align 4, !tbaa !57
  %10 = mul nsw i32 2, %9
  %11 = add nsw i32 %10, 1
  %12 = sext i32 %11 to i64
  %13 = mul nsw i64 %12, 255
  %14 = load i32, ptr %8, align 4, !tbaa !57
  %15 = sext i32 %14 to i64
  %16 = add nsw i64 %13, %15
  %17 = load i32, ptr %8, align 4, !tbaa !57
  %18 = mul nsw i32 2, %17
  %19 = sext i32 %18 to i64
  %20 = sdiv i64 %16, %19
  %21 = trunc i64 %20 to i32
  ret i32 %21
}

; Function Attrs: nounwind uwtable
define internal void @create_colorindex(ptr noundef %0) #0 {
  %2 = alloca ptr, align 8
  %3 = alloca ptr, align 8
  %4 = alloca ptr, align 8
  %5 = alloca i32, align 4
  %6 = alloca i32, align 4
  %7 = alloca i32, align 4
  %8 = alloca i32, align 4
  %9 = alloca i32, align 4
  %10 = alloca i32, align 4
  %11 = alloca i32, align 4
  store ptr %0, ptr %2, align 8, !tbaa !3
  call void @llvm.lifetime.start.p0(i64 8, ptr %3) #4
  %12 = load ptr, ptr %2, align 8, !tbaa !3
  %13 = getelementptr inbounds nuw %struct.jpeg_decompress_struct, ptr %12, i32 0, i32 87
  %14 = load ptr, ptr %13, align 8, !tbaa !45
  store ptr %14, ptr %3, align 8, !tbaa !44
  call void @llvm.lifetime.start.p0(i64 8, ptr %4) #4
  call void @llvm.lifetime.start.p0(i64 4, ptr %5) #4
  call void @llvm.lifetime.start.p0(i64 4, ptr %6) #4
  call void @llvm.lifetime.start.p0(i64 4, ptr %7) #4
  call void @llvm.lifetime.start.p0(i64 4, ptr %8) #4
  call void @llvm.lifetime.start.p0(i64 4, ptr %9) #4
  call void @llvm.lifetime.start.p0(i64 4, ptr %10) #4
  call void @llvm.lifetime.start.p0(i64 4, ptr %11) #4
  %15 = load ptr, ptr %2, align 8, !tbaa !3
  %16 = getelementptr inbounds nuw %struct.jpeg_decompress_struct, ptr %15, i32 0, i32 21
  %17 = load i32, ptr %16, align 8, !tbaa !56
  %18 = icmp eq i32 %17, 1
  br i1 %18, label %19, label %22

19:                                               ; preds = %1
  store i32 510, ptr %11, align 4, !tbaa !57
  %20 = load ptr, ptr %3, align 8, !tbaa !44
  %21 = getelementptr inbounds nuw %struct.my_cquantizer, ptr %20, i32 0, i32 4
  store i32 1, ptr %21, align 8, !tbaa !64
  br label %25

22:                                               ; preds = %1
  store i32 0, ptr %11, align 4, !tbaa !57
  %23 = load ptr, ptr %3, align 8, !tbaa !44
  %24 = getelementptr inbounds nuw %struct.my_cquantizer, ptr %23, i32 0, i32 4
  store i32 0, ptr %24, align 8, !tbaa !64
  br label %25

25:                                               ; preds = %22, %19
  %26 = load ptr, ptr %2, align 8, !tbaa !3
  %27 = getelementptr inbounds nuw %struct.jpeg_decompress_struct, ptr %26, i32 0, i32 1
  %28 = load ptr, ptr %27, align 8, !tbaa !41
  %29 = getelementptr inbounds nuw %struct.jpeg_memory_mgr, ptr %28, i32 0, i32 2
  %30 = load ptr, ptr %29, align 8, !tbaa !71
  %31 = load ptr, ptr %2, align 8, !tbaa !3
  %32 = load i32, ptr %11, align 4, !tbaa !57
  %33 = add nsw i32 256, %32
  %34 = load ptr, ptr %2, align 8, !tbaa !3
  %35 = getelementptr inbounds nuw %struct.jpeg_decompress_struct, ptr %34, i32 0, i32 29
  %36 = load i32, ptr %35, align 8, !tbaa !54
  %37 = call ptr %30(ptr noundef %31, i32 noundef 1, i32 noundef %33, i32 noundef %36)
  %38 = load ptr, ptr %3, align 8, !tbaa !44
  %39 = getelementptr inbounds nuw %struct.my_cquantizer, ptr %38, i32 0, i32 3
  store ptr %37, ptr %39, align 8, !tbaa !78
  %40 = load ptr, ptr %3, align 8, !tbaa !44
  %41 = getelementptr inbounds nuw %struct.my_cquantizer, ptr %40, i32 0, i32 2
  %42 = load i32, ptr %41, align 8, !tbaa !60
  store i32 %42, ptr %9, align 4, !tbaa !57
  store i32 0, ptr %5, align 4, !tbaa !57
  br label %43

43:                                               ; preds = %140, %25
  %44 = load i32, ptr %5, align 4, !tbaa !57
  %45 = load ptr, ptr %2, align 8, !tbaa !3
  %46 = getelementptr inbounds nuw %struct.jpeg_decompress_struct, ptr %45, i32 0, i32 29
  %47 = load i32, ptr %46, align 8, !tbaa !54
  %48 = icmp slt i32 %44, %47
  br i1 %48, label %49, label %143

49:                                               ; preds = %43
  %50 = load ptr, ptr %3, align 8, !tbaa !44
  %51 = getelementptr inbounds nuw %struct.my_cquantizer, ptr %50, i32 0, i32 5
  %52 = load i32, ptr %5, align 4, !tbaa !57
  %53 = sext i32 %52 to i64
  %54 = getelementptr inbounds [4 x i32], ptr %51, i64 0, i64 %53
  %55 = load i32, ptr %54, align 4, !tbaa !57
  store i32 %55, ptr %8, align 4, !tbaa !57
  %56 = load i32, ptr %9, align 4, !tbaa !57
  %57 = load i32, ptr %8, align 4, !tbaa !57
  %58 = sdiv i32 %56, %57
  store i32 %58, ptr %9, align 4, !tbaa !57
  %59 = load i32, ptr %11, align 4, !tbaa !57
  %60 = icmp ne i32 %59, 0
  br i1 %60, label %61, label %70

61:                                               ; preds = %49
  %62 = load ptr, ptr %3, align 8, !tbaa !44
  %63 = getelementptr inbounds nuw %struct.my_cquantizer, ptr %62, i32 0, i32 3
  %64 = load ptr, ptr %63, align 8, !tbaa !78
  %65 = load i32, ptr %5, align 4, !tbaa !57
  %66 = sext i32 %65 to i64
  %67 = getelementptr inbounds ptr, ptr %64, i64 %66
  %68 = load ptr, ptr %67, align 8, !tbaa !73
  %69 = getelementptr inbounds i8, ptr %68, i64 255
  store ptr %69, ptr %67, align 8, !tbaa !73
  br label %70

70:                                               ; preds = %61, %49
  %71 = load ptr, ptr %3, align 8, !tbaa !44
  %72 = getelementptr inbounds nuw %struct.my_cquantizer, ptr %71, i32 0, i32 3
  %73 = load ptr, ptr %72, align 8, !tbaa !78
  %74 = load i32, ptr %5, align 4, !tbaa !57
  %75 = sext i32 %74 to i64
  %76 = getelementptr inbounds ptr, ptr %73, i64 %75
  %77 = load ptr, ptr %76, align 8, !tbaa !73
  store ptr %77, ptr %4, align 8, !tbaa !73
  store i32 0, ptr %10, align 4, !tbaa !57
  %78 = load ptr, ptr %2, align 8, !tbaa !3
  %79 = load i32, ptr %5, align 4, !tbaa !57
  %80 = load i32, ptr %8, align 4, !tbaa !57
  %81 = sub nsw i32 %80, 1
  %82 = call i32 @largest_input_value(ptr noundef %78, i32 noundef %79, i32 noundef 0, i32 noundef %81)
  store i32 %82, ptr %7, align 4, !tbaa !57
  store i32 0, ptr %6, align 4, !tbaa !57
  br label %83

83:                                               ; preds = %108, %70
  %84 = load i32, ptr %6, align 4, !tbaa !57
  %85 = icmp sle i32 %84, 255
  br i1 %85, label %86, label %111

86:                                               ; preds = %83
  br label %87

87:                                               ; preds = %91, %86
  %88 = load i32, ptr %6, align 4, !tbaa !57
  %89 = load i32, ptr %7, align 4, !tbaa !57
  %90 = icmp sgt i32 %88, %89
  br i1 %90, label %91, label %99

91:                                               ; preds = %87
  %92 = load ptr, ptr %2, align 8, !tbaa !3
  %93 = load i32, ptr %5, align 4, !tbaa !57
  %94 = load i32, ptr %10, align 4, !tbaa !57
  %95 = add nsw i32 %94, 1
  store i32 %95, ptr %10, align 4, !tbaa !57
  %96 = load i32, ptr %8, align 4, !tbaa !57
  %97 = sub nsw i32 %96, 1
  %98 = call i32 @largest_input_value(ptr noundef %92, i32 noundef %93, i32 noundef %95, i32 noundef %97)
  store i32 %98, ptr %7, align 4, !tbaa !57
  br label %87, !llvm.loop !79

99:                                               ; preds = %87
  %100 = load i32, ptr %10, align 4, !tbaa !57
  %101 = load i32, ptr %9, align 4, !tbaa !57
  %102 = mul nsw i32 %100, %101
  %103 = trunc i32 %102 to i8
  %104 = load ptr, ptr %4, align 8, !tbaa !73
  %105 = load i32, ptr %6, align 4, !tbaa !57
  %106 = sext i32 %105 to i64
  %107 = getelementptr inbounds i8, ptr %104, i64 %106
  store i8 %103, ptr %107, align 1, !tbaa !36
  br label %108

108:                                              ; preds = %99
  %109 = load i32, ptr %6, align 4, !tbaa !57
  %110 = add nsw i32 %109, 1
  store i32 %110, ptr %6, align 4, !tbaa !57
  br label %83, !llvm.loop !80

111:                                              ; preds = %83
  %112 = load i32, ptr %11, align 4, !tbaa !57
  %113 = icmp ne i32 %112, 0
  br i1 %113, label %114, label %139

114:                                              ; preds = %111
  store i32 1, ptr %6, align 4, !tbaa !57
  br label %115

115:                                              ; preds = %135, %114
  %116 = load i32, ptr %6, align 4, !tbaa !57
  %117 = icmp sle i32 %116, 255
  br i1 %117, label %118, label %138

118:                                              ; preds = %115
  %119 = load ptr, ptr %4, align 8, !tbaa !73
  %120 = getelementptr inbounds i8, ptr %119, i64 0
  %121 = load i8, ptr %120, align 1, !tbaa !36
  %122 = load ptr, ptr %4, align 8, !tbaa !73
  %123 = load i32, ptr %6, align 4, !tbaa !57
  %124 = sub nsw i32 0, %123
  %125 = sext i32 %124 to i64
  %126 = getelementptr inbounds i8, ptr %122, i64 %125
  store i8 %121, ptr %126, align 1, !tbaa !36
  %127 = load ptr, ptr %4, align 8, !tbaa !73
  %128 = getelementptr inbounds i8, ptr %127, i64 255
  %129 = load i8, ptr %128, align 1, !tbaa !36
  %130 = load ptr, ptr %4, align 8, !tbaa !73
  %131 = load i32, ptr %6, align 4, !tbaa !57
  %132 = add nsw i32 255, %131
  %133 = sext i32 %132 to i64
  %134 = getelementptr inbounds i8, ptr %130, i64 %133
  store i8 %129, ptr %134, align 1, !tbaa !36
  br label %135

135:                                              ; preds = %118
  %136 = load i32, ptr %6, align 4, !tbaa !57
  %137 = add nsw i32 %136, 1
  store i32 %137, ptr %6, align 4, !tbaa !57
  br label %115, !llvm.loop !81

138:                                              ; preds = %115
  br label %139

139:                                              ; preds = %138, %111
  br label %140

140:                                              ; preds = %139
  %141 = load i32, ptr %5, align 4, !tbaa !57
  %142 = add nsw i32 %141, 1
  store i32 %142, ptr %5, align 4, !tbaa !57
  br label %43, !llvm.loop !82

143:                                              ; preds = %43
  call void @llvm.lifetime.end.p0(i64 4, ptr %11) #4
  call void @llvm.lifetime.end.p0(i64 4, ptr %10) #4
  call void @llvm.lifetime.end.p0(i64 4, ptr %9) #4
  call void @llvm.lifetime.end.p0(i64 4, ptr %8) #4
  call void @llvm.lifetime.end.p0(i64 4, ptr %7) #4
  call void @llvm.lifetime.end.p0(i64 4, ptr %6) #4
  call void @llvm.lifetime.end.p0(i64 4, ptr %5) #4
  call void @llvm.lifetime.end.p0(i64 8, ptr %4) #4
  call void @llvm.lifetime.end.p0(i64 8, ptr %3) #4
  ret void
}