; Function Attrs: nounwind uwtable
define internal fastcc void @create_colorindex(ptr noundef %0) unnamed_addr #0 {
  %2 = getelementptr inbounds nuw i8, ptr %0, i64 624
  %3 = load ptr, ptr %2, align 8, !tbaa !42
  %4 = getelementptr inbounds nuw i8, ptr %0, i64 112
  %5 = load i32, ptr %4, align 8, !tbaa !69
  %.not = icmp eq i32 %5, 1
  %spec.select = zext i1 %.not to i32
  %spec.select79 = select i1 %.not, i32 766, i32 256
  %6 = getelementptr inbounds nuw i8, ptr %3, i64 64
  store i32 %spec.select, ptr %6, align 8, !tbaa !77
  %7 = getelementptr inbounds nuw i8, ptr %0, i64 8
  %8 = load ptr, ptr %7, align 8, !tbaa !39
  %9 = getelementptr inbounds nuw i8, ptr %8, i64 16
  %10 = load ptr, ptr %9, align 8, !tbaa !61
  %11 = getelementptr inbounds nuw i8, ptr %0, i64 144
  %12 = load i32, ptr %11, align 8, !tbaa !51
  %13 = tail call ptr %10(ptr noundef nonnull %0, i32 noundef 1, i32 noundef %spec.select79, i32 noundef %12) #7
  %14 = getelementptr inbounds nuw i8, ptr %3, i64 56
  store ptr %13, ptr %14, align 8, !tbaa !84
  %15 = load i32, ptr %11, align 8, !tbaa !51
  %16 = icmp sgt i32 %15, 0
  br i1 %16, label %.lr.ph62, label %._crit_edge63

.lr.ph62:                                         ; preds = %1
  %17 = getelementptr inbounds nuw i8, ptr %3, i64 48
  %18 = load i32, ptr %17, align 8, !tbaa !68
  %19 = getelementptr inbounds nuw i8, ptr %3, i64 68
  br label %20

20:                                               ; preds = %.lr.ph62, %.loopexit
  %indvars.iv73 = phi i64 [ 0, %.lr.ph62 ], [ %indvars.iv.next74, %.loopexit ]
  %.04660 = phi i32 [ %18, %.lr.ph62 ], [ %23, %.loopexit ]
  %21 = getelementptr inbounds nuw [4 x i32], ptr %19, i64 0, i64 %indvars.iv73
  %22 = load i32, ptr %21, align 4, !tbaa !54
  %23 = sdiv i32 %.04660, %22
  %.pre = load ptr, ptr %14, align 8, !tbaa !84
  %24 = getelementptr inbounds nuw ptr, ptr %.pre, i64 %indvars.iv73
  %25 = load ptr, ptr %24, align 8, !tbaa !63
  br i1 %.not, label %26, label %._crit_edge76

26:                                               ; preds = %20
  %27 = getelementptr inbounds nuw i8, ptr %25, i64 255
  store ptr %27, ptr %24, align 8, !tbaa !63
  br label %._crit_edge76

._crit_edge76:                                    ; preds = %20, %26
  %28 = phi ptr [ %27, %26 ], [ %25, %20 ]
  %29 = add nsw i32 %22, -1
  %30 = sext i32 %29 to i64
  %31 = add nsw i64 %30, 255
  %32 = shl nsw i32 %29, 1
  %33 = sext i32 %32 to i64
  %34 = sdiv i64 %31, %33
  %35 = trunc i64 %34 to i32
  %invariant.op = add nsw i64 %30, 255
  br label %.preheader

.preheader:                                       ; preds = %._crit_edge76, %._crit_edge
  %indvars.iv66 = phi i64 [ 0, %._crit_edge76 ], [ %indvars.iv.next67, %._crit_edge ]
  %.04557 = phi i32 [ 0, %._crit_edge76 ], [ %.1.lcssa, %._crit_edge ]
  %.04856 = phi i32 [ %35, %._crit_edge76 ], [ %.149.lcssa, %._crit_edge ]
  %36 = sext i32 %.04856 to i64
  %37 = icmp sgt i64 %indvars.iv66, %36
  br i1 %37, label %.lr.ph.preheader, label %._crit_edge

.lr.ph.preheader:                                 ; preds = %.preheader
  %38 = sext i32 %.04557 to i64
  br label %.lr.ph

.lr.ph:                                           ; preds = %.lr.ph.preheader, %.lr.ph
  %indvars.iv = phi i64 [ %38, %.lr.ph.preheader ], [ %indvars.iv.next, %.lr.ph ]
  %indvars.iv.next = add nsw i64 %indvars.iv, 1
  %39 = mul i64 %indvars.iv.next, 510
  %.reass = add i64 %39, %invariant.op
  %40 = sdiv i64 %.reass, %33
  %sext = shl i64 %40, 32
  %41 = ashr exact i64 %sext, 32
  %42 = icmp sgt i64 %indvars.iv66, %41
  br i1 %42, label %.lr.ph, label %._crit_edge.loopexit, !llvm.loop !85

._crit_edge.loopexit:                             ; preds = %.lr.ph
  %43 = trunc i64 %40 to i32
  %44 = trunc nsw i64 %indvars.iv.next to i32
  br label %._crit_edge

._crit_edge:                                      ; preds = %._crit_edge.loopexit, %.preheader
  %.149.lcssa = phi i32 [ %.04856, %.preheader ], [ %43, %._crit_edge.loopexit ]
  %.1.lcssa = phi i32 [ %.04557, %.preheader ], [ %44, %._crit_edge.loopexit ]
  %45 = mul nsw i32 %.1.lcssa, %23
  %46 = trunc i32 %45 to i8
  %47 = getelementptr inbounds nuw i8, ptr %28, i64 %indvars.iv66
  store i8 %46, ptr %47, align 1, !tbaa !34
  %indvars.iv.next67 = add nuw nsw i64 %indvars.iv66, 1
  %exitcond.not = icmp eq i64 %indvars.iv.next67, 256
  br i1 %exitcond.not, label %48, label %.preheader, !llvm.loop !86

48:                                               ; preds = %._crit_edge
  br i1 %.not, label %.preheader52, label %.loopexit

.preheader52:                                     ; preds = %48
  %49 = getelementptr inbounds nuw i8, ptr %28, i64 255
  %.pre78 = load i8, ptr %28, align 1, !tbaa !34
  br label %50

50:                                               ; preds = %.preheader52, %50
  %indvars.iv69 = phi i64 [ 1, %.preheader52 ], [ %indvars.iv.next70, %50 ]
  %51 = sub nsw i64 0, %indvars.iv69
  %52 = getelementptr inbounds i8, ptr %28, i64 %51
  store i8 %.pre78, ptr %52, align 1, !tbaa !34
  %53 = load i8, ptr %49, align 1, !tbaa !34
  %gep = getelementptr inbounds nuw i8, ptr %49, i64 %indvars.iv69
  store i8 %53, ptr %gep, align 1, !tbaa !34
  %indvars.iv.next70 = add nuw nsw i64 %indvars.iv69, 1
  %exitcond72.not = icmp eq i64 %indvars.iv.next70, 256
  br i1 %exitcond72.not, label %.loopexit, label %50, !llvm.loop !87

.loopexit:                                        ; preds = %50, %48
  %indvars.iv.next74 = add nuw nsw i64 %indvars.iv73, 1
  %54 = load i32, ptr %11, align 8, !tbaa !51
  %55 = sext i32 %54 to i64
  %56 = icmp slt i64 %indvars.iv.next74, %55
  br i1 %56, label %20, label %._crit_edge63, !llvm.loop !88

._crit_edge63:                                    ; preds = %.loopexit, %1
  ret void
}